target datalayout = "e-m:e-p270:32:32-p271:32:32-p272:64:64-i64:64-i128:128-f80:128-n8:16:32:64-S128"
target triple = "x86_64-pc-linux-gnu"

%struct.topoinfo_tree = type { i32, ptr }
%struct.topo_info = type { i16, i32, ptr, ptr, ptr }

@.str.21 = private unnamed_addr constant [34 x i8] c"No topology information available\00", align 1
@.str.22 = private unnamed_addr constant [42 x i8] c"hostset_create: memory allocation failure\00", align 1
@.str.23 = private unnamed_addr constant [57 x i8] c"Topology information contains no switch or node named %s\00", align 1

; Function Attrs: nounwind uwtable
define dso_local i32 @topology_p_topology_print(ptr noundef %0, ptr noundef %1, ptr noundef %2) #0 {
  %4 = alloca i32, align 4
  %5 = alloca ptr, align 8
  %6 = alloca ptr, align 8
  %7 = alloca ptr, align 8
  %8 = alloca i32, align 4
  %9 = alloca i32, align 4
  %10 = alloca i32, align 4
  %11 = alloca ptr, align 8
  %12 = alloca i32, align 4
  %13 = alloca ptr, align 8
  store ptr %0, ptr %5, align 8
  store ptr %1, ptr %6, align 8
  store ptr %2, ptr %7, align 8
  call void @llvm.lifetime.start.p0(i64 4, ptr %8) #10
  call void @llvm.lifetime.start.p0(i64 4, ptr %9) #10
  call void @llvm.lifetime.start.p0(i64 4, ptr %10) #10
  store i32 0, ptr %10, align 4
  call void @llvm.lifetime.start.p0(i64 8, ptr %11) #10
  %14 = load ptr, ptr %5, align 8
  store ptr %14, ptr %11, align 8
  %15 = load ptr, ptr %7, align 8
  store ptr null, ptr %15, align 8
  %16 = load ptr, ptr %6, align 8
  %17 = icmp eq ptr %16, null
  br i1 %17, label %24, label %18

18:                                               ; preds = %3
  %19 = load ptr, ptr %6, align 8
  %20 = getelementptr inbounds i8, ptr %19, i64 0
  %21 = load i8, ptr %20, align 1
  %22 = sext i8 %21 to i32
  %23 = icmp eq i32 %22, 0
  br i1 %23, label %24, label %50

24:                                               ; preds = %18, %3
  %25 = load ptr, ptr %11, align 8
  %26 = getelementptr inbounds nuw %struct.topoinfo_tree, ptr %25, i32 0, i32 0
  %27 = load i32, ptr %26, align 8
  %28 = icmp eq i32 %27, 0
  br i1 %28, label %29, label %31

29:                                               ; preds = %24
  %30 = call i32 (ptr, ...) @slurm_error(ptr noundef @.str.21)
  store i32 0, ptr %4, align 4
  store i32 1, ptr %12, align 4
  br label %156

31:                                               ; preds = %24
  store i32 0, ptr %8, align 4
  br label %32

32:                                               ; preds = %46, %31
  %33 = load i32, ptr %8, align 4
  %34 = load ptr, ptr %11, align 8
  %35 = getelementptr inbounds nuw %struct.topoinfo_tree, ptr %34, i32 0, i32 0
  %36 = load i32, ptr %35, align 8
  %37 = icmp ult i32 %33, %36
  br i1 %37, label %38, label %49

38:                                               ; preds = %32
  %39 = load ptr, ptr %11, align 8
  %40 = getelementptr inbounds nuw %struct.topoinfo_tree, ptr %39, i32 0, i32 1
  %41 = load ptr, ptr %40, align 8
  %42 = load i32, ptr %8, align 4
  %43 = sext i32 %42 to i64
  %44 = getelementptr inbounds %struct.topo_info, ptr %41, i64 %43
  %45 = load ptr, ptr %7, align 8
  call void @_print_topo_record(ptr noundef %44, ptr noundef %45)
  br label %46

46:                                               ; preds = %38
  %47 = load i32, ptr %8, align 4
  %48 = add nsw i32 %47, 1
  store i32 %48, ptr %8, align 4
  br label %32, !llvm.loop !27

49:                                               ; preds = %32
  store i32 0, ptr %4, align 4
  store i32 1, ptr %12, align 4
  br label %156

50:                                               ; preds = %18
  store i32 0, ptr %8, align 4
  br label %51

51:                                               ; preds = %78, %50
  %52 = load i32, ptr %8, align 4
  %53 = load ptr, ptr %11, align 8
  %54 = getelementptr inbounds nuw %struct.topoinfo_tree, ptr %53, i32 0, i32 0
  %55 = load i32, ptr %54, align 8
  %56 = icmp ult i32 %52, %55
  br i1 %56, label %57, label %81

57:                                               ; preds = %51
  %58 = load ptr, ptr %11, align 8
  %59 = getelementptr inbounds nuw %struct.topoinfo_tree, ptr %58, i32 0, i32 1
  %60 = load ptr, ptr %59, align 8
  %61 = load i32, ptr %8, align 4
  %62 = sext i32 %61 to i64
  %63 = getelementptr inbounds %struct.topo_info, ptr %60, i64 %62
  %64 = getelementptr inbounds nuw %struct.topo_info, ptr %63, i32 0, i32 2
  %65 = load ptr, ptr %64, align 8
  %66 = load ptr, ptr %6, align 8
  %67 = call i32 @slurm_xstrcmp(ptr noundef %65, ptr noundef %66)
  %68 = icmp ne i32 %67, 0
  br i1 %68, label %69, label %70

69:                                               ; preds = %57
  br label %78

70:                                               ; preds = %57
  %71 = load ptr, ptr %11, align 8
  %72 = getelementptr inbounds nuw %struct.topoinfo_tree, ptr %71, i32 0, i32 1
  %73 = load ptr, ptr %72, align 8
  %74 = load i32, ptr %8, align 4
  %75 = sext i32 %74 to i64
  %76 = getelementptr inbounds %struct.topo_info, ptr %73, i64 %75
  %77 = load ptr, ptr %7, align 8
  call void @_print_topo_record(ptr noundef %76, ptr noundef %77)
  store i32 0, ptr %4, align 4
  store i32 1, ptr %12, align 4
  br label %156

78:                                               ; preds = %69
  %79 = load i32, ptr %8, align 4
  %80 = add nsw i32 %79, 1
  store i32 %80, ptr %8, align 4
  br label %51, !llvm.loop !28

81:                                               ; preds = %51
  store i32 0, ptr %8, align 4
  br label %82

82:                                               ; preds = %146, %81
  %83 = load i32, ptr %8, align 4
  %84 = load ptr, ptr %11, align 8
  %85 = getelementptr inbounds nuw %struct.topoinfo_tree, ptr %84, i32 0, i32 0
  %86 = load i32, ptr %85, align 8
  %87 = icmp ult i32 %83, %86
  br i1 %87, label %88, label %149

88:                                               ; preds = %82
  call void @llvm.lifetime.start.p0(i64 8, ptr %13) #10
  %89 = load ptr, ptr %11, align 8
  %90 = getelementptr inbounds nuw %struct.topoinfo_tree, ptr %89, i32 0, i32 1
  %91 = load ptr, ptr %90, align 8
  %92 = load i32, ptr %8, align 4
  %93 = sext i32 %92 to i64
  %94 = getelementptr inbounds %struct.topo_info, ptr %91, i64 %93
  %95 = getelementptr inbounds nuw %struct.topo_info, ptr %94, i32 0, i32 3
  %96 = load ptr, ptr %95, align 8
  %97 = icmp eq ptr %96, null
  br i1 %97, label %111, label %98

98:                                               ; preds = %88
  %99 = load ptr, ptr %11, align 8
  %100 = getelementptr inbounds nuw %struct.topoinfo_tree, ptr %99, i32 0, i32 1
  %101 = load ptr, ptr %100, align 8
  %102 = load i32, ptr %8, align 4
  %103 = sext i32 %102 to i64
  %104 = getelementptr inbounds %struct.topo_info, ptr %101, i64 %103
  %105 = getelementptr inbounds nuw %struct.topo_info, ptr %104, i32 0, i32 3
  %106 = load ptr, ptr %105, align 8
  %107 = getelementptr inbounds i8, ptr %106, i64 0
  %108 = load i8, ptr %107, align 1
  %109 = sext i8 %108 to i32
  %110 = icmp eq i32 %109, 0
  br i1 %110, label %111, label %112

111:                                              ; preds = %98, %88
  store i32 10, ptr %12, align 4
  br label %143

112:                                              ; preds = %98
  %113 = load ptr, ptr %11, align 8
  %114 = getelementptr inbounds nuw %struct.topoinfo_tree, ptr %113, i32 0, i32 1
  %115 = load ptr, ptr %114, align 8
  %116 = load i32, ptr %8, align 4
  %117 = sext i32 %116 to i64
  %118 = getelementptr inbounds %struct.topo_info, ptr %115, i64 %117
  %119 = getelementptr inbounds nuw %struct.topo_info, ptr %118, i32 0, i32 3
  %120 = load ptr, ptr %119, align 8
  %121 = call ptr @slurm_hostset_create(ptr noundef %120)
  store ptr %121, ptr %13, align 8
  %122 = load ptr, ptr %13, align 8
  %123 = icmp eq ptr %122, null
  br i1 %123, label %124, label %125

124:                                              ; preds = %112
  call void (ptr, ...) @slurm_fatal(ptr noundef @.str.22) #12
  unreachable

125:                                              ; preds = %112
  %126 = load ptr, ptr %13, align 8
  %127 = load ptr, ptr %6, align 8
  %128 = call i32 @slurm_hostset_within(ptr noundef %126, ptr noundef %127)
  store i32 %128, ptr %9, align 4
  %129 = load ptr, ptr %13, align 8
  call void @slurm_hostset_destroy(ptr noundef %129)
  %130 = load i32, ptr %9, align 4
  %131 = icmp ne i32 %130, 0
  br i1 %131, label %133, label %132

132:                                              ; preds = %125
  store i32 10, ptr %12, align 4
  br label %143

133:                                              ; preds = %125
  %134 = load i32, ptr %10, align 4
  %135 = add nsw i32 %134, 1
  store i32 %135, ptr %10, align 4
  %136 = load ptr, ptr %11, align 8
  %137 = getelementptr inbounds nuw %struct.topoinfo_tree, ptr %136, i32 0, i32 1
  %138 = load ptr, ptr %137, align 8
  %139 = load i32, ptr %8, align 4
  %140 = sext i32 %139 to i64
  %141 = getelementptr inbounds %struct.topo_info, ptr %138, i64 %140
  %142 = load ptr, ptr %7, align 8
  call void @_print_topo_record(ptr noundef %141, ptr noundef %142)
  store i32 0, ptr %12, align 4
  br label %143

143:                                              ; preds = %133, %132, %111
  call void @llvm.lifetime.end.p0(i64 8, ptr %13) #10
  %144 = load i32, ptr %12, align 4
  switch i32 %144, label %158 [
    i32 0, label %145
    i32 10, label %146
  ]

145:                                              ; preds = %143
  br label %146

146:                                              ; preds = %145, %143
  %147 = load i32, ptr %8, align 4
  %148 = add nsw i32 %147, 1
  store i32 %148, ptr %8, align 4
  br label %82, !llvm.loop !29

149:                                              ; preds = %82
  %150 = load i32, ptr %10, align 4
  %151 = icmp eq i32 %150, 0
  br i1 %151, label %152, label %155

152:                                              ; preds = %149
  %153 = load ptr, ptr %6, align 8
  %154 = call i32 (ptr, ...) @slurm_error(ptr noundef @.str.23, ptr noundef %153)
  br label %155

155:                                              ; preds = %152, %149
  store i32 0, ptr %4, align 4
  store i32 1, ptr %12, align 4
  br label %156

156:                                              ; preds = %155, %70, %49, %29
  call void @llvm.lifetime.end.p0(i64 8, ptr %11) #10
  call void @llvm.lifetime.end.p0(i64 4, ptr %10) #10
  call void @llvm.lifetime.end.p0(i64 4, ptr %9) #10
  call void @llvm.lifetime.end.p0(i64 4, ptr %8) #10
  %157 = load i32, ptr %4, align 4
  ret i32 %157

158:                                              ; preds = %143
  unreachable
}